; Function Attrs: mustprogress uwtable
define hidden void @_ZN19OpenColorIO_v2_4dev18Lut1DTransformImpl9setLengthEm(ptr noundef nonnull align 8 dereferenceable(376) %this, i64 noundef %length) unnamed_addr #3 align 2 personality ptr @__gxx_personality_v0 {
entry:
  %ref.tmp = alloca %"class.OpenColorIO_v2_4dev::Lut1DOpData::Lut3by1DArray", align 8
  %m_halfFlags.i = getelementptr inbounds i8, ptr %this, i64 232
  %0 = load i32, ptr %m_halfFlags.i, align 8
  call void @_ZN19OpenColorIO_v2_4dev11Lut1DOpData13Lut3by1DArrayC1ENS0_9HalfFlagsEmmb(ptr noundef nonnull align 8 dereferenceable(48) %ref.tmp, i32 noundef %0, i64 noundef 3, i64 noundef %length, i1 noundef zeroext false)
  %m_length.i = getelementptr inbounds i8, ptr %this, i64 192
  %m_length2.i = getelementptr inbounds i8, ptr %ref.tmp, i64 8
  call void @llvm.memcpy.p0.p0.i64(ptr noundef nonnull align 8 dereferenceable(16) %m_length.i, ptr noundef nonnull align 8 dereferenceable(16) %m_length2.i, i64 16, i1 false)
  %m_data.i = getelementptr inbounds i8, ptr %this, i64 208
  %m_data3.i = getelementptr inbounds i8, ptr %ref.tmp, i64 24
  %call4.i1 = invoke noundef nonnull align 8 dereferenceable(24) ptr @_ZNSt6vectorIfSaIfEEaSERKS1_(ptr noundef nonnull align 8 dereferenceable(24) %m_data.i, ptr noundef nonnull align 8 dereferenceable(24) %m_data3.i)
          to label %invoke.cont unwind label %lpad

invoke.cont:                                      ; preds = %entry
  call void @_ZN19OpenColorIO_v2_4dev11Lut1DOpData13Lut3by1DArrayD1Ev(ptr noundef nonnull align 8 dereferenceable(48) %ref.tmp) #18
  ret void

lpad:                                             ; preds = %entry
  %1 = landingpad { ptr, i32 }
          cleanup
  call void @_ZN19OpenColorIO_v2_4dev11Lut1DOpData13Lut3by1DArrayD1Ev(ptr noundef nonnull align 8 dereferenceable(48) %ref.tmp) #18
  resume { ptr, i32 } %1
}